
Memory Configuration

Name             Origin             Length             Attributes
*default*        0x0000000000000000 0xffffffffffffffff

Linker script and memory map

                0x0000000000009000                . = 0x9000

.text           0x0000000000009000      0xebc
 *(.text*)
 .text          0x0000000000009000      0x200 ./bin/kernel_entry.o
                0x0000000000009004                _start
 .text          0x0000000000009200       0x18 ./bin/kernel.o
                0x0000000000009200                main
 .text          0x0000000000009218       0x3a ./bin/IoPorts.o
                0x0000000000009218                outb
                0x0000000000009237                inb
 .text          0x0000000000009252       0x45 ./bin/string.o
                0x0000000000009252                memset
 *fill*         0x0000000000009297        0x9 
 .text          0x00000000000092a0      0x1d1 ./bin/interrupts.o
                0x00000000000092a0                _idt_load
                0x00000000000092a8                _isr0
                0x00000000000092b2                _isr1
                0x00000000000092bc                _isr2
                0x00000000000092c6                _isr3
                0x00000000000092d0                _isr4
                0x00000000000092da                _isr5
                0x00000000000092e4                _isr6
                0x00000000000092f1                _isr7
                0x00000000000092fb                _isr8
                0x0000000000009303                _isr9
                0x000000000000930d                _isr10
                0x0000000000009315                _isr11
                0x000000000000931d                _isr12
                0x0000000000009325                _isr13
                0x000000000000932d                _isr14
                0x0000000000009332                _isr15
                0x0000000000009339                _isr16
                0x0000000000009340                _isr17
                0x0000000000009347                _isr18
                0x000000000000934e                _isr19
                0x0000000000009355                _isr20
                0x000000000000935c                _isr21
                0x0000000000009363                _isr22
                0x000000000000936a                _isr23
                0x0000000000009371                _isr24
                0x0000000000009378                _isr25
                0x000000000000937f                _isr26
                0x0000000000009386                _isr27
                0x000000000000938d                _isr28
                0x0000000000009394                _isr29
                0x000000000000939b                _isr30
                0x00000000000093a2                _isr31
                0x00000000000093a9                _syscall
                0x00000000000093d8                irq0
                0x00000000000093df                irq1
                0x00000000000093e6                irq2
                0x00000000000093ed                irq3
                0x00000000000093f4                irq4
                0x00000000000093fb                irq5
                0x0000000000009402                irq6
                0x0000000000009409                irq7
                0x0000000000009410                irq8
                0x0000000000009417                irq9
                0x000000000000941e                irq10
                0x0000000000009425                irq11
                0x000000000000942c                irq12
                0x0000000000009433                irq13
                0x000000000000943a                irq14
                0x0000000000009441                irq15
 .text          0x0000000000009471       0xa0 ./bin/idt.o
                0x0000000000009471                idt_set_gate
                0x00000000000094d9                idt_install
 .text          0x0000000000009511      0x307 ./bin/irq.o
                0x0000000000009511                irq_install_handler
                0x0000000000009524                irq_uninstall_handler
                0x0000000000009538                irq_remap
                0x00000000000095e6                irq_install
                0x0000000000009785                _irq_handler
                0x00000000000097f5                irq_wait
 .text          0x0000000000009818      0x312 ./bin/isr.o
                0x0000000000009818                isrs_install
                0x0000000000009b1b                _fault_handler
 .text          0x0000000000009b2a      0x1db ./bin/draw.o
                0x0000000000009b2a                draw_pixel
                0x0000000000009cc0                rgba_to_hex
 .text          0x0000000000009d05      0x1b7 ./bin/print.o
                0x0000000000009d05                get_char_bitmap
                0x0000000000009d2c                put_char
                0x0000000000009e8d                put_string

.iplt           0x0000000000009ebc        0x0
 .iplt          0x0000000000009ebc        0x0 ./bin/kernel_entry.o

.rodata         0x000000000000a000      0x13c
 *(.rodata*)
 .rodata        0x000000000000a000      0x13c ./bin/kernel.o

.rel.dyn        0x000000000000a13c        0x0
 .rel.got       0x000000000000a13c        0x0 ./bin/kernel_entry.o
 .rel.iplt      0x000000000000a13c        0x0 ./bin/kernel_entry.o

.data           0x000000000000b000     0x2080
 *(.data*)
 .data          0x000000000000b000       0x80 ./bin/kernel.o
                0x000000000000b000                exception_messages
 .data          0x000000000000b080        0x0 ./bin/IoPorts.o
 .data          0x000000000000b080        0x0 ./bin/string.o
 .data          0x000000000000b080        0x0 ./bin/idt.o
 .data          0x000000000000b080        0x0 ./bin/irq.o
 .data          0x000000000000b080        0x0 ./bin/isr.o
 .data          0x000000000000b080        0x0 ./bin/draw.o
 .data          0x000000000000b080     0x2000 ./bin/print.o
                0x000000000000b080                default_font

.got            0x000000000000d080        0x0
 .got           0x000000000000d080        0x0 ./bin/kernel_entry.o

.got.plt        0x000000000000d080        0x0
 .got.plt       0x000000000000d080        0x0 ./bin/kernel_entry.o

.igot.plt       0x000000000000d080        0x0
 .igot.plt      0x000000000000d080        0x0 ./bin/kernel_entry.o

.bss            0x000000000000e000      0x8a8
 *(COMMON)
 *(.bss*)
 .bss           0x000000000000e000        0x0 ./bin/kernel.o
 .bss           0x000000000000e000        0x0 ./bin/IoPorts.o
 .bss           0x000000000000e000        0x0 ./bin/string.o
 .bss           0x000000000000e000      0x806 ./bin/idt.o
                0x000000000000e000                idt
                0x000000000000e800                _idtp
 *fill*         0x000000000000e806       0x1a 
 .bss           0x000000000000e820       0x7c ./bin/irq.o
                0x000000000000e820                irq_routines
 .bss           0x000000000000e89c        0x0 ./bin/isr.o
 .bss           0x000000000000e89c        0x4 ./bin/draw.o
 .bss           0x000000000000e8a0        0x8 ./bin/print.o
                0x000000000000e8a0                print_cursor_x
                0x000000000000e8a4                print_cursor_y
LOAD ./bin/kernel_entry.o
LOAD ./bin/kernel.o
LOAD ./bin/IoPorts.o
LOAD ./bin/string.o
LOAD ./bin/interrupts.o
LOAD ./bin/idt.o
LOAD ./bin/irq.o
LOAD ./bin/isr.o
LOAD ./bin/draw.o
LOAD ./bin/print.o
OUTPUT(./bin/kernel32.elf elf32-i386)

.debug_info     0x0000000000000000      0xf30
 .debug_info    0x0000000000000000       0xa5 ./bin/kernel.o
 .debug_info    0x00000000000000a5       0xf8 ./bin/IoPorts.o
 .debug_info    0x000000000000019d       0xef ./bin/string.o
 .debug_info    0x000000000000028c      0x1b1 ./bin/idt.o
 .debug_info    0x000000000000043d      0x3e3 ./bin/irq.o
 .debug_info    0x0000000000000820      0x318 ./bin/isr.o
 .debug_info    0x0000000000000b38      0x1e4 ./bin/draw.o
 .debug_info    0x0000000000000d1c      0x214 ./bin/print.o

.debug_abbrev   0x0000000000000000      0x73a
 .debug_abbrev  0x0000000000000000       0x83 ./bin/kernel.o
 .debug_abbrev  0x0000000000000083       0x93 ./bin/IoPorts.o
 .debug_abbrev  0x0000000000000116       0xac ./bin/string.o
 .debug_abbrev  0x00000000000001c2      0x13a ./bin/idt.o
 .debug_abbrev  0x00000000000002fc      0x1a3 ./bin/irq.o
 .debug_abbrev  0x000000000000049f       0xd6 ./bin/isr.o
 .debug_abbrev  0x0000000000000575       0xb0 ./bin/draw.o
 .debug_abbrev  0x0000000000000625      0x115 ./bin/print.o

.debug_aranges  0x0000000000000000      0x100
 .debug_aranges
                0x0000000000000000       0x20 ./bin/kernel.o
 .debug_aranges
                0x0000000000000020       0x20 ./bin/IoPorts.o
 .debug_aranges
                0x0000000000000040       0x20 ./bin/string.o
 .debug_aranges
                0x0000000000000060       0x20 ./bin/idt.o
 .debug_aranges
                0x0000000000000080       0x20 ./bin/irq.o
 .debug_aranges
                0x00000000000000a0       0x20 ./bin/isr.o
 .debug_aranges
                0x00000000000000c0       0x20 ./bin/draw.o
 .debug_aranges
                0x00000000000000e0       0x20 ./bin/print.o

.debug_line     0x0000000000000000      0x5cf
 .debug_line    0x0000000000000000       0x67 ./bin/kernel.o
 .debug_line    0x0000000000000067       0x64 ./bin/IoPorts.o
 .debug_line    0x00000000000000cb       0x83 ./bin/string.o
 .debug_line    0x000000000000014e       0x94 ./bin/idt.o
 .debug_line    0x00000000000001e2      0x10e ./bin/irq.o
 .debug_line    0x00000000000002f0       0xa8 ./bin/isr.o
 .debug_line    0x0000000000000398      0x112 ./bin/draw.o
 .debug_line    0x00000000000004aa      0x125 ./bin/print.o

.debug_str      0x0000000000000000      0x42c
 .debug_str     0x0000000000000000       0x84 ./bin/kernel.o
                                         0xa8 (size before relaxing)
 .debug_str     0x0000000000000084       0x86 ./bin/IoPorts.o
                                        0x101 (size before relaxing)
 .debug_str     0x000000000000010a       0x1f ./bin/string.o
                                        0x100 (size before relaxing)
 .debug_str     0x0000000000000129       0x52 ./bin/idt.o
                                        0x153 (size before relaxing)
 .debug_str     0x000000000000017b       0xe3 ./bin/irq.o
                                        0x1fb (size before relaxing)
 .debug_str     0x000000000000025e       0xee ./bin/isr.o
                                        0x1b3 (size before relaxing)
 .debug_str     0x000000000000034c       0x7d ./bin/draw.o
                                        0x175 (size before relaxing)
 .debug_str     0x00000000000003c9       0x63 ./bin/print.o
                                        0x17b (size before relaxing)

.debug_line_str
                0x0000000000000000      0x1c2
 .debug_line_str
                0x0000000000000000       0x55 ./bin/kernel.o
                                         0x78 (size before relaxing)
 .debug_line_str
                0x0000000000000055       0x57 ./bin/IoPorts.o
                                         0x97 (size before relaxing)
 .debug_line_str
                0x00000000000000ac       0x1c ./bin/string.o
                                         0x90 (size before relaxing)
 .debug_line_str
                0x00000000000000c8       0x34 ./bin/idt.o
                                         0xae (size before relaxing)
 .debug_line_str
                0x00000000000000fc       0x2c ./bin/irq.o
                                         0xc8 (size before relaxing)
 .debug_line_str
                0x0000000000000128       0x13 ./bin/isr.o
                                         0x63 (size before relaxing)
 .debug_line_str
                0x000000000000013b       0x27 ./bin/draw.o
                                         0x9a (size before relaxing)
 .debug_line_str
                0x0000000000000162       0x60 ./bin/print.o
                                         0xd5 (size before relaxing)

.comment        0x0000000000000000       0x12
 .comment       0x0000000000000000       0x12 ./bin/kernel.o
                                         0x13 (size before relaxing)
 .comment       0x0000000000000012       0x13 ./bin/IoPorts.o
 .comment       0x0000000000000012       0x13 ./bin/string.o
 .comment       0x0000000000000012       0x13 ./bin/idt.o
 .comment       0x0000000000000012       0x13 ./bin/irq.o
 .comment       0x0000000000000012       0x13 ./bin/isr.o
 .comment       0x0000000000000012       0x13 ./bin/draw.o
 .comment       0x0000000000000012       0x13 ./bin/print.o

.debug_frame    0x0000000000000000      0x304
 .debug_frame   0x0000000000000000       0x2c ./bin/kernel.o
 .debug_frame   0x000000000000002c       0x54 ./bin/IoPorts.o
 .debug_frame   0x0000000000000080       0x34 ./bin/string.o
 .debug_frame   0x00000000000000b4       0x54 ./bin/idt.o
 .debug_frame   0x0000000000000108       0xd4 ./bin/irq.o
 .debug_frame   0x00000000000001dc       0x54 ./bin/isr.o
 .debug_frame   0x0000000000000230       0x5c ./bin/draw.o
 .debug_frame   0x000000000000028c       0x78 ./bin/print.o
