
Memory Configuration

Name             Origin             Length             Attributes
*default*        0x0000000000000000 0xffffffffffffffff

Linker script and memory map

                0x0000000000009000                . = 0x9000

.text           0x0000000000009000     0x337f
 *(.text*)
 .text          0x0000000000009000      0x200 ./bin/kernel_entry.o
                0x0000000000009004                _start
 .text          0x0000000000009200       0x45 ./bin/kernel.o
                0x0000000000009200                main
 .text          0x0000000000009245       0xab ./bin/IoPorts.o
                0x0000000000009245                outb
                0x0000000000009264                inb
                0x000000000000927f                outw
                0x00000000000092a0                inw
                0x00000000000092be                outl
                0x00000000000092d5                inl
 .text          0x00000000000092f0      0x330 ./bin/string.o
                0x00000000000092f0                memset
                0x0000000000009335                memcpy
                0x0000000000009391                itoa
                0x00000000000094a2                strcmp
                0x00000000000094d8                strncpy
                0x0000000000009531                strlen
                0x0000000000009555                strcat
                0x0000000000009595                strncat
                0x00000000000095ee                strrchr
 .text          0x0000000000009620      0x204 ./bin/malloc.o
                0x0000000000009620                Memory_Init
                0x000000000000965f                AllocateMemory
                0x0000000000009750                DeallocateMemory
 *fill*         0x0000000000009824        0xc 
 .text          0x0000000000009830      0x1d1 ./bin/interrupts.o
                0x0000000000009830                _idt_load
                0x0000000000009838                _isr0
                0x0000000000009842                _isr1
                0x000000000000984c                _isr2
                0x0000000000009856                _isr3
                0x0000000000009860                _isr4
                0x000000000000986a                _isr5
                0x0000000000009874                _isr6
                0x0000000000009881                _isr7
                0x000000000000988b                _isr8
                0x0000000000009893                _isr9
                0x000000000000989d                _isr10
                0x00000000000098a5                _isr11
                0x00000000000098ad                _isr12
                0x00000000000098b5                _isr13
                0x00000000000098bd                _isr14
                0x00000000000098c2                _isr15
                0x00000000000098c9                _isr16
                0x00000000000098d0                _isr17
                0x00000000000098d7                _isr18
                0x00000000000098de                _isr19
                0x00000000000098e5                _isr20
                0x00000000000098ec                _isr21
                0x00000000000098f3                _isr22
                0x00000000000098fa                _isr23
                0x0000000000009901                _isr24
                0x0000000000009908                _isr25
                0x000000000000990f                _isr26
                0x0000000000009916                _isr27
                0x000000000000991d                _isr28
                0x0000000000009924                _isr29
                0x000000000000992b                _isr30
                0x0000000000009932                _isr31
                0x0000000000009939                _syscall
                0x0000000000009968                irq0
                0x000000000000996f                irq1
                0x0000000000009976                irq2
                0x000000000000997d                irq3
                0x0000000000009984                irq4
                0x000000000000998b                irq5
                0x0000000000009992                irq6
                0x0000000000009999                irq7
                0x00000000000099a0                irq8
                0x00000000000099a7                irq9
                0x00000000000099ae                irq10
                0x00000000000099b5                irq11
                0x00000000000099bc                irq12
                0x00000000000099c3                irq13
                0x00000000000099ca                irq14
                0x00000000000099d1                irq15
 .text          0x0000000000009a01       0xa0 ./bin/idt.o
                0x0000000000009a01                idt_set_gate
                0x0000000000009a69                idt_install
 .text          0x0000000000009aa1      0x307 ./bin/irq.o
                0x0000000000009aa1                irq_install_handler
                0x0000000000009ab4                irq_uninstall_handler
                0x0000000000009ac8                irq_remap
                0x0000000000009b76                irq_install
                0x0000000000009d15                _irq_handler
                0x0000000000009d85                irq_wait
 .text          0x0000000000009da8      0x312 ./bin/isr.o
                0x0000000000009da8                isrs_install
                0x000000000000a0ab                _fault_handler
 *fill*         0x000000000000a0ba        0x6 
 .text          0x000000000000a0c0       0x24 ./bin/syscalls_entry.o
                0x000000000000a0c0                syscall_entry
 .text          0x000000000000a0e4       0xf0 ./bin/syscall_handler.o
                0x000000000000a0e4                syscall_handler
                0x000000000000a1b1                init_syscalls
 .text          0x000000000000a1d4       0x97 ./bin/syscall.o
                0x000000000000a1d4                syscall
                0x000000000000a1f4                syscall_exit
                0x000000000000a20b                syscall_creat
                0x000000000000a224                syscall_rmv
                0x000000000000a23b                syscall_mkdir
                0x000000000000a254                syscall_rmdir
 .text          0x000000000000a26b      0xe1c ./bin/filesystem.o
                0x000000000000a26b                init_filesystem
                0x000000000000a35e                create_file
                0x000000000000a473                remove_file
                0x000000000000a5ce                edit_file
                0x000000000000a7da                cat_file
                0x000000000000a995                create_directory
                0x000000000000aab9                remove_directory
                0x000000000000ab6b                change_directory
                0x000000000000ad0f                find_file_loop
                0x000000000000ae78                find_file
                0x000000000000aecc                list_current_dir
 .text          0x000000000000b087       0xd6 ./bin/screen.o
                0x000000000000b087                copy_memory
                0x000000000000b0c5                handle_screen
                0x000000000000b116                init_screen
                0x000000000000b153                return_framebuffer
 .text          0x000000000000b15d       0xd4 ./bin/time.o
                0x000000000000b15d                timer_phase
                0x000000000000b1ac                timer_handler
                0x000000000000b1db                sleep
                0x000000000000b216                time_init
 .text          0x000000000000b231      0x2e1 ./bin/draw.o
                0x000000000000b231                draw_pixel
                0x000000000000b3a2                clear_screen
                0x000000000000b3d4                draw_rectangular
                0x000000000000b461                return_pixel_color
                0x000000000000b4cd                rgba_to_hex
 .text          0x000000000000b512      0x477 ./bin/print.o
                0x000000000000b512                get_char_bitmap
                0x000000000000b539                put_char
                0x000000000000b6c9                put_string
                0x000000000000b6f8                print
                0x000000000000b94b                set_print_x_pos
                0x000000000000b959                set_print_y_pos
                0x000000000000b967                get_print_x_pos
                0x000000000000b971                get_print_y_pos
                0x000000000000b97b                set_print_color
 .text          0x000000000000b989      0x1a9 ./bin/event_queue.o
                0x000000000000b989                init_event_queue
                0x000000000000b9f9                add_event
                0x000000000000ba4f                remove_event
                0x000000000000bae8                clear_event_queue
                0x000000000000bb28                return_event_queue
 .text          0x000000000000bb32      0x1ac ./bin/event_handler.o
                0x000000000000bb32                is_event_queue_empty
                0x000000000000bb44                handle_keyboard_events
                0x000000000000bbc5                handle_mouse_events
                0x000000000000bbeb                handle_window_events
                0x000000000000bc09                handle_events
 .text          0x000000000000bcde      0x32e ./bin/keyboard.o
                0x000000000000bcde                clear_last_char
                0x000000000000bd47                KeyboardHandler
                0x000000000000bff1                InitKeyboard
 .text          0x000000000000c00c      0x373 ./bin/mouse.o
                0x000000000000c00c                save_cursor_buffer
                0x000000000000c07b                clear_mouse_trails
                0x000000000000c0ef                draw_mouse
                0x000000000000c147                MouseHandler
                0x000000000000c2b3                init_mouse

.iplt           0x000000000000c37f        0x0
 .iplt          0x000000000000c37f        0x0 ./bin/kernel_entry.o

.rodata         0x000000000000d000      0x3d0
 *(.rodata*)
 .rodata        0x000000000000d000      0x13c ./bin/kernel.o
 .rodata        0x000000000000d13c       0x31 ./bin/malloc.o
 *fill*         0x000000000000d16d        0x3 
 .rodata        0x000000000000d170       0x74 ./bin/syscall_handler.o
 .rodata        0x000000000000d1e4       0x5f ./bin/filesystem.o
 *fill*         0x000000000000d243        0x1 
 .rodata        0x000000000000d244       0x84 ./bin/print.o
 .rodata        0x000000000000d2c8       0x2b ./bin/event_queue.o
 *fill*         0x000000000000d2f3        0x1 
 .rodata        0x000000000000d2f4       0xd0 ./bin/keyboard.o
 .rodata        0x000000000000d3c4        0xc ./bin/mouse.o

.rel.dyn        0x000000000000d3d0        0x0
 .rel.got       0x000000000000d3d0        0x0 ./bin/kernel_entry.o
 .rel.iplt      0x000000000000d3d0        0x0 ./bin/kernel_entry.o

.data           0x000000000000e000     0x230c
 *(.data*)
 .data          0x000000000000e000       0x80 ./bin/kernel.o
                0x000000000000e000                exception_messages
 .data          0x000000000000e080        0x0 ./bin/IoPorts.o
 .data          0x000000000000e080        0x0 ./bin/string.o
 .data          0x000000000000e080        0x0 ./bin/malloc.o
 .data          0x000000000000e080        0x0 ./bin/idt.o
 .data          0x000000000000e080        0x0 ./bin/irq.o
 .data          0x000000000000e080        0x0 ./bin/isr.o
 .data          0x000000000000e080        0x0 ./bin/syscall_handler.o
 .data          0x000000000000e080        0x0 ./bin/syscall.o
 .data          0x000000000000e080        0x4 ./bin/filesystem.o
                0x000000000000e080                fs
 .data          0x000000000000e084        0x0 ./bin/screen.o
 .data          0x000000000000e084        0x0 ./bin/time.o
 .data          0x000000000000e084        0x0 ./bin/draw.o
 *fill*         0x000000000000e084       0x1c 
 .data          0x000000000000e0a0     0x2004 ./bin/print.o
                0x000000000000e0a0                default_font
                0x00000000000100a0                print_color
 .data          0x00000000000100a4        0x0 ./bin/event_queue.o
 .data          0x00000000000100a4        0x0 ./bin/event_handler.o
 *fill*         0x00000000000100a4       0x1c 
 .data          0x00000000000100c0      0x208 ./bin/keyboard.o
                0x00000000000100c0                allowed_input
                0x00000000000100e0                lowercase
                0x00000000000101e0                uppercase
 *fill*         0x00000000000102c8       0x18 
 .data          0x00000000000102e0       0x2c ./bin/mouse.o
                0x00000000000102e0                cursor
                0x0000000000010308                mouse_y_pos

.got            0x000000000001030c        0x0
 .got           0x000000000001030c        0x0 ./bin/kernel_entry.o

.got.plt        0x000000000001030c        0x0
 .got.plt       0x000000000001030c        0x0 ./bin/kernel_entry.o

.igot.plt       0x000000000001030c        0x0
 .igot.plt      0x000000000001030c        0x0 ./bin/kernel_entry.o

.bss            0x0000000000011000   0x7ea350
 *(COMMON)
 *(.bss*)
 .bss           0x0000000000011000        0x0 ./bin/kernel.o
 .bss           0x0000000000011000        0x0 ./bin/IoPorts.o
 .bss           0x0000000000011000        0x0 ./bin/string.o
 .bss           0x0000000000011000        0x4 ./bin/malloc.o
                0x0000000000011000                malloc_ht
 *fill*         0x0000000000011004       0x1c 
 .bss           0x0000000000011020      0x806 ./bin/idt.o
                0x0000000000011020                idt
                0x0000000000011820                _idtp
 *fill*         0x0000000000011826       0x1a 
 .bss           0x0000000000011840       0x7c ./bin/irq.o
                0x0000000000011840                irq_routines
 .bss           0x00000000000118bc        0x0 ./bin/isr.o
 .bss           0x00000000000118bc        0x0 ./bin/syscall_handler.o
 .bss           0x00000000000118bc        0x0 ./bin/syscall.o
 *fill*         0x00000000000118bc        0x4 
 .bss           0x00000000000118c0      0x250 ./bin/filesystem.o
                0x00000000000118c0                currentdirectory
                0x00000000000118e0                currentdirpath
 *fill*         0x0000000000011b10       0x10 
 .bss           0x0000000000011b20   0x7e9020 ./bin/screen.o
                0x0000000000011b20                framebuffer
                0x0000000000011b40                front_buffer
 .bss           0x00000000007fab40        0x8 ./bin/time.o
                0x00000000007fab40                timer_ticks
                0x00000000007fab44                seconds
 .bss           0x00000000007fab48        0x0 ./bin/draw.o
 .bss           0x00000000007fab48        0x8 ./bin/print.o
                0x00000000007fab48                print_cursor_x
                0x00000000007fab4c                print_cursor_y
 .bss           0x00000000007fab50        0x8 ./bin/event_queue.o
                0x00000000007fab50                event_count
                0x00000000007fab54                event_queue
 .bss           0x00000000007fab58        0x0 ./bin/event_handler.o
 *fill*         0x00000000007fab58        0x8 
 .bss           0x00000000007fab60      0x40c ./bin/keyboard.o
                0x00000000007fab60                shift
                0x00000000007fab61                caps
                0x00000000007fab62                winpressed
                0x00000000007fab80                text_buffer
                0x00000000007faf68                text_length
 *fill*         0x00000000007faf6c       0x14 
 .bss           0x00000000007faf80      0x3d0 ./bin/mouse.o
                0x00000000007faf80                mousePacket
                0x00000000007faf84                mouse_x_pos
                0x00000000007faf88                mouse_prev_x_pos
                0x00000000007faf8c                mouse_prev_y_pos
                0x00000000007faf90                mouse_m1_pressed
                0x00000000007faf94                mouseData
                0x00000000007faf95                mouseCycle
                0x00000000007faf98                mouse_pos_holder
                0x00000000007fafc0                background_buffer
LOAD ./bin/kernel_entry.o
LOAD ./bin/kernel.o
LOAD ./bin/IoPorts.o
LOAD ./bin/string.o
LOAD ./bin/malloc.o
LOAD ./bin/interrupts.o
LOAD ./bin/idt.o
LOAD ./bin/irq.o
LOAD ./bin/isr.o
LOAD ./bin/syscalls_entry.o
LOAD ./bin/syscall_handler.o
LOAD ./bin/syscall.o
LOAD ./bin/filesystem.o
LOAD ./bin/screen.o
LOAD ./bin/time.o
LOAD ./bin/draw.o
LOAD ./bin/print.o
LOAD ./bin/event_queue.o
LOAD ./bin/event_handler.o
LOAD ./bin/keyboard.o
LOAD ./bin/mouse.o
OUTPUT(./bin/kernel32.elf elf32-i386)

.debug_info     0x0000000000000000     0x39ea
 .debug_info    0x0000000000000000      0x16d ./bin/kernel.o
 .debug_info    0x000000000000016d      0x1cf ./bin/IoPorts.o
 .debug_info    0x000000000000033c      0x418 ./bin/string.o
 .debug_info    0x0000000000000754      0x1c1 ./bin/malloc.o
 .debug_info    0x0000000000000915      0x1b1 ./bin/idt.o
 .debug_info    0x0000000000000ac6      0x3e3 ./bin/irq.o
 .debug_info    0x0000000000000ea9      0x318 ./bin/isr.o
 .debug_info    0x00000000000011c1      0x2d7 ./bin/syscall_handler.o
 .debug_info    0x0000000000001498      0x1f3 ./bin/syscall.o
 .debug_info    0x000000000000168b      0x86d ./bin/filesystem.o
 .debug_info    0x0000000000001ef8      0x203 ./bin/screen.o
 .debug_info    0x00000000000020fb      0x28d ./bin/time.o
 .debug_info    0x0000000000002388      0x343 ./bin/draw.o
 .debug_info    0x00000000000026cb      0x45e ./bin/print.o
 .debug_info    0x0000000000002b29      0x228 ./bin/event_queue.o
 .debug_info    0x0000000000002d51      0x2a8 ./bin/event_handler.o
 .debug_info    0x0000000000002ff9      0x479 ./bin/keyboard.o
 .debug_info    0x0000000000003472      0x578 ./bin/mouse.o

.debug_abbrev   0x0000000000000000     0x1719
 .debug_abbrev  0x0000000000000000       0xa3 ./bin/kernel.o
 .debug_abbrev  0x00000000000000a3       0xb2 ./bin/IoPorts.o
 .debug_abbrev  0x0000000000000155       0xd0 ./bin/string.o
 .debug_abbrev  0x0000000000000225      0x134 ./bin/malloc.o
 .debug_abbrev  0x0000000000000359      0x13a ./bin/idt.o
 .debug_abbrev  0x0000000000000493      0x1a3 ./bin/irq.o
 .debug_abbrev  0x0000000000000636       0xd6 ./bin/isr.o
 .debug_abbrev  0x000000000000070c      0x145 ./bin/syscall_handler.o
 .debug_abbrev  0x0000000000000851       0xbd ./bin/syscall.o
 .debug_abbrev  0x000000000000090e      0x24c ./bin/filesystem.o
 .debug_abbrev  0x0000000000000b5a      0x17f ./bin/screen.o
 .debug_abbrev  0x0000000000000cd9      0x135 ./bin/time.o
 .debug_abbrev  0x0000000000000e0e      0x11f ./bin/draw.o
 .debug_abbrev  0x0000000000000f2d      0x172 ./bin/print.o
 .debug_abbrev  0x000000000000109f      0x174 ./bin/event_queue.o
 .debug_abbrev  0x0000000000001213      0x173 ./bin/event_handler.o
 .debug_abbrev  0x0000000000001386      0x1dd ./bin/keyboard.o
 .debug_abbrev  0x0000000000001563      0x1b6 ./bin/mouse.o

.debug_aranges  0x0000000000000000      0x240
 .debug_aranges
                0x0000000000000000       0x20 ./bin/kernel.o
 .debug_aranges
                0x0000000000000020       0x20 ./bin/IoPorts.o
 .debug_aranges
                0x0000000000000040       0x20 ./bin/string.o
 .debug_aranges
                0x0000000000000060       0x20 ./bin/malloc.o
 .debug_aranges
                0x0000000000000080       0x20 ./bin/idt.o
 .debug_aranges
                0x00000000000000a0       0x20 ./bin/irq.o
 .debug_aranges
                0x00000000000000c0       0x20 ./bin/isr.o
 .debug_aranges
                0x00000000000000e0       0x20 ./bin/syscall_handler.o
 .debug_aranges
                0x0000000000000100       0x20 ./bin/syscall.o
 .debug_aranges
                0x0000000000000120       0x20 ./bin/filesystem.o
 .debug_aranges
                0x0000000000000140       0x20 ./bin/screen.o
 .debug_aranges
                0x0000000000000160       0x20 ./bin/time.o
 .debug_aranges
                0x0000000000000180       0x20 ./bin/draw.o
 .debug_aranges
                0x00000000000001a0       0x20 ./bin/print.o
 .debug_aranges
                0x00000000000001c0       0x20 ./bin/event_queue.o
 .debug_aranges
                0x00000000000001e0       0x20 ./bin/event_handler.o
 .debug_aranges
                0x0000000000000200       0x20 ./bin/keyboard.o
 .debug_aranges
                0x0000000000000220       0x20 ./bin/mouse.o

.debug_line     0x0000000000000000     0x1c76
 .debug_line    0x0000000000000000       0xc2 ./bin/kernel.o
 .debug_line    0x00000000000000c2       0x87 ./bin/IoPorts.o
 .debug_line    0x0000000000000149      0x2cb ./bin/string.o
 .debug_line    0x0000000000000414      0x187 ./bin/malloc.o
 .debug_line    0x000000000000059b       0x94 ./bin/idt.o
 .debug_line    0x000000000000062f      0x10e ./bin/irq.o
 .debug_line    0x000000000000073d       0xa8 ./bin/isr.o
 .debug_line    0x00000000000007e5       0xbf ./bin/syscall_handler.o
 .debug_line    0x00000000000008a4       0x84 ./bin/syscall.o
 .debug_line    0x0000000000000928      0x723 ./bin/filesystem.o
 .debug_line    0x000000000000104b       0xdc ./bin/screen.o
 .debug_line    0x0000000000001127       0xac ./bin/time.o
 .debug_line    0x00000000000011d3      0x1b4 ./bin/draw.o
 .debug_line    0x0000000000001387      0x2a9 ./bin/print.o
 .debug_line    0x0000000000001630      0x12c ./bin/event_queue.o
 .debug_line    0x000000000000175c      0x101 ./bin/event_handler.o
 .debug_line    0x000000000000185d      0x1ad ./bin/keyboard.o
 .debug_line    0x0000000000001a0a      0x26c ./bin/mouse.o

.debug_str      0x0000000000000000      0xe4c
 .debug_str     0x0000000000000000      0x161 ./bin/kernel.o
                                        0x19a (size before relaxing)
 .debug_str     0x0000000000000161       0x39 ./bin/IoPorts.o
                                        0x11a (size before relaxing)
 .debug_str     0x000000000000019a       0xb3 ./bin/string.o
                                        0x1c5 (size before relaxing)
 .debug_str     0x000000000000024d       0x66 ./bin/malloc.o
                                        0x176 (size before relaxing)
 .debug_str     0x00000000000002b3       0x4d ./bin/idt.o
                                        0x153 (size before relaxing)
 .debug_str     0x0000000000000300       0xe3 ./bin/irq.o
                                        0x1fb (size before relaxing)
 .debug_str     0x00000000000003e3       0xee ./bin/isr.o
                                        0x1b3 (size before relaxing)
 .debug_str     0x00000000000004d1       0xaf ./bin/syscall_handler.o
                                        0x1bc (size before relaxing)
 .debug_str     0x0000000000000580       0x5d ./bin/syscall.o
                                        0x19d (size before relaxing)
 .debug_str     0x00000000000005dd      0x33f ./bin/filesystem.o
                                        0x531 (size before relaxing)
 .debug_str     0x000000000000091c       0x4b ./bin/screen.o
                                        0x174 (size before relaxing)
 .debug_str     0x0000000000000967       0x52 ./bin/time.o
                                        0x199 (size before relaxing)
 .debug_str     0x00000000000009b9       0xa4 ./bin/draw.o
                                        0x1f5 (size before relaxing)
 .debug_str     0x0000000000000a5d       0xd3 ./bin/print.o
                                        0x221 (size before relaxing)
 .debug_str     0x0000000000000b30       0x93 ./bin/event_queue.o
                                        0x1d9 (size before relaxing)
 .debug_str     0x0000000000000bc3      0x109 ./bin/event_handler.o
                                        0x27c (size before relaxing)
 .debug_str     0x0000000000000ccc       0x7d ./bin/keyboard.o
                                        0x2c8 (size before relaxing)
 .debug_str     0x0000000000000d49      0x103 ./bin/mouse.o
                                        0x30d (size before relaxing)

.debug_line_str
                0x0000000000000000      0x7fb
 .debug_line_str
                0x0000000000000000      0x1e6 ./bin/kernel.o
                                        0x209 (size before relaxing)
 .debug_line_str
                0x00000000000001e6       0x57 ./bin/IoPorts.o
                                         0x97 (size before relaxing)
 .debug_line_str
                0x000000000000023d       0x1c ./bin/string.o
                                         0x9d (size before relaxing)
 .debug_line_str
                0x0000000000000259       0x44 ./bin/malloc.o
                                         0xd7 (size before relaxing)
 .debug_line_str
                0x000000000000029d       0x34 ./bin/idt.o
                                         0xae (size before relaxing)
 .debug_line_str
                0x00000000000002d1       0x2c ./bin/irq.o
                                         0xc8 (size before relaxing)
 .debug_line_str
                0x00000000000002fd       0x13 ./bin/isr.o
                                         0x63 (size before relaxing)
 .debug_line_str
                0x0000000000000310       0x60 ./bin/syscall_handler.o
                                         0xce (size before relaxing)
 .debug_line_str
                0x0000000000000370       0x15 ./bin/syscall.o
                                         0x6d (size before relaxing)
 .debug_line_str
                0x0000000000000385       0x9b ./bin/filesystem.o
                                        0x157 (size before relaxing)
 .debug_line_str
                0x0000000000000420       0x3c ./bin/screen.o
                                         0xce (size before relaxing)
 .debug_line_str
                0x000000000000045c       0x42 ./bin/time.o
                                         0xd5 (size before relaxing)
 .debug_line_str
                0x000000000000049e       0x33 ./bin/draw.o
                                         0xc8 (size before relaxing)
 .debug_line_str
                0x00000000000004d1       0x72 ./bin/print.o
                                        0x107 (size before relaxing)
 .debug_line_str
                0x0000000000000543       0x65 ./bin/event_queue.o
                                        0x123 (size before relaxing)
 .debug_line_str
                0x00000000000005a8       0x34 ./bin/event_handler.o
                                         0x94 (size before relaxing)
 .debug_line_str
                0x00000000000005dc      0x109 ./bin/keyboard.o
                                        0x1c3 (size before relaxing)
 .debug_line_str
                0x00000000000006e5      0x116 ./bin/mouse.o
                                        0x1c7 (size before relaxing)

.comment        0x0000000000000000       0x12
 .comment       0x0000000000000000       0x12 ./bin/kernel.o
                                         0x13 (size before relaxing)
 .comment       0x0000000000000012       0x13 ./bin/IoPorts.o
 .comment       0x0000000000000012       0x13 ./bin/string.o
 .comment       0x0000000000000012       0x13 ./bin/malloc.o
 .comment       0x0000000000000012       0x13 ./bin/idt.o
 .comment       0x0000000000000012       0x13 ./bin/irq.o
 .comment       0x0000000000000012       0x13 ./bin/isr.o
 .comment       0x0000000000000012       0x13 ./bin/syscall_handler.o
 .comment       0x0000000000000012       0x13 ./bin/syscall.o
 .comment       0x0000000000000012       0x13 ./bin/filesystem.o
 .comment       0x0000000000000012       0x13 ./bin/screen.o
 .comment       0x0000000000000012       0x13 ./bin/time.o
 .comment       0x0000000000000012       0x13 ./bin/draw.o
 .comment       0x0000000000000012       0x13 ./bin/print.o
 .comment       0x0000000000000012       0x13 ./bin/event_queue.o
 .comment       0x0000000000000012       0x13 ./bin/event_handler.o
 .comment       0x0000000000000012       0x13 ./bin/keyboard.o
 .comment       0x0000000000000012       0x13 ./bin/mouse.o

.debug_frame    0x0000000000000000      0xcac
 .debug_frame   0x0000000000000000       0x2c ./bin/kernel.o
 .debug_frame   0x000000000000002c       0xd4 ./bin/IoPorts.o
 .debug_frame   0x0000000000000100      0x134 ./bin/string.o
 .debug_frame   0x0000000000000234       0x74 ./bin/malloc.o
 .debug_frame   0x00000000000002a8       0x54 ./bin/idt.o
 .debug_frame   0x00000000000002fc       0xd4 ./bin/irq.o
 .debug_frame   0x00000000000003d0       0x54 ./bin/isr.o
 .debug_frame   0x0000000000000424       0x54 ./bin/syscall_handler.o
 .debug_frame   0x0000000000000478       0xd8 ./bin/syscall.o
 .debug_frame   0x0000000000000550      0x17c ./bin/filesystem.o
 .debug_frame   0x00000000000006cc       0x8c ./bin/screen.o
 .debug_frame   0x0000000000000758       0x94 ./bin/time.o
 .debug_frame   0x00000000000007ec       0xbc ./bin/draw.o
 .debug_frame   0x00000000000008a8      0x138 ./bin/print.o
 .debug_frame   0x00000000000009e0       0xcc ./bin/event_queue.o
 .debug_frame   0x0000000000000aac       0xb4 ./bin/event_handler.o
 .debug_frame   0x0000000000000b60       0x80 ./bin/keyboard.o
 .debug_frame   0x0000000000000be0       0xcc ./bin/mouse.o
